
fib_elf:     file format elf64-littleriscv


Disassembly of section .text:

0000000090000000 <reset_vector>:
    90000000:	00001137          	lui	sp,0x1
    90000004:	8071011b          	addiw	sp,sp,-2041
    90000008:	01411113          	slli	sp,sp,0x14
    9000000c:	1100006f          	j	9000011c <start>

0000000090000010 <print_int_console>:
    90000010:	02054e63          	bltz	a0,9000004c <print_int_console+0x3c>
    90000014:	00900793          	li	a5,9
    90000018:	00a7c463          	blt	a5,a0,90000020 <print_int_console+0x10>
    9000001c:	0000006f          	j	9000001c <print_int_console+0xc>
    90000020:	0305051b          	addiw	a0,a0,48
    90000024:	09801737          	lui	a4,0x9801
    90000028:	0ff57513          	andi	a0,a0,255
    9000002c:	00471713          	slli	a4,a4,0x4
    90000030:	00474783          	lbu	a5,4(a4) # 9801004 <reset_vector-0x867feffc>
    90000034:	0ff7f793          	andi	a5,a5,255
    90000038:	fe078ce3          	beqz	a5,90000030 <print_int_console+0x20>
    9000003c:	00a701a3          	sb	a0,3(a4)
    90000040:	00100793          	li	a5,1
    90000044:	00f702a3          	sb	a5,5(a4)
    90000048:	00008067          	ret
    9000004c:	09801737          	lui	a4,0x9801
    90000050:	00471713          	slli	a4,a4,0x4
    90000054:	00474783          	lbu	a5,4(a4) # 9801004 <reset_vector-0x867feffc>
    90000058:	0ff7f793          	andi	a5,a5,255
    9000005c:	fe078ce3          	beqz	a5,90000054 <print_int_console+0x44>
    90000060:	02d00793          	li	a5,45
    90000064:	00f701a3          	sb	a5,3(a4)
    90000068:	00100793          	li	a5,1
    9000006c:	40a0053b          	negw	a0,a0
    90000070:	00f702a3          	sb	a5,5(a4)
    90000074:	fa1ff06f          	j	90000014 <print_int_console+0x4>

0000000090000078 <fib>:
    90000078:	fe010113          	addi	sp,sp,-32 # fe0 <reset_vector-0x8ffff020>
    9000007c:	00113c23          	sd	ra,24(sp)
    90000080:	00813823          	sd	s0,16(sp)
    90000084:	00913423          	sd	s1,8(sp)
    90000088:	01213023          	sd	s2,0(sp)
    9000008c:	04050863          	beqz	a0,900000dc <fib+0x64>
    90000090:	00100793          	li	a5,1
    90000094:	00050413          	mv	s0,a0
    90000098:	06f50263          	beq	a0,a5,900000fc <fib+0x84>
    9000009c:	00000493          	li	s1,0
    900000a0:	00100913          	li	s2,1
    900000a4:	fff4051b          	addiw	a0,s0,-1
    900000a8:	fd1ff0ef          	jal	ra,90000078 <fib>
    900000ac:	ffe4041b          	addiw	s0,s0,-2
    900000b0:	009504bb          	addw	s1,a0,s1
    900000b4:	00040663          	beqz	s0,900000c0 <fib+0x48>
    900000b8:	ff2416e3          	bne	s0,s2,900000a4 <fib+0x2c>
    900000bc:	0014849b          	addiw	s1,s1,1
    900000c0:	01813083          	ld	ra,24(sp)
    900000c4:	01013403          	ld	s0,16(sp)
    900000c8:	00048513          	mv	a0,s1
    900000cc:	00013903          	ld	s2,0(sp)
    900000d0:	00813483          	ld	s1,8(sp)
    900000d4:	02010113          	addi	sp,sp,32
    900000d8:	00008067          	ret
    900000dc:	01813083          	ld	ra,24(sp)
    900000e0:	01013403          	ld	s0,16(sp)
    900000e4:	00000493          	li	s1,0
    900000e8:	00048513          	mv	a0,s1
    900000ec:	00013903          	ld	s2,0(sp)
    900000f0:	00813483          	ld	s1,8(sp)
    900000f4:	02010113          	addi	sp,sp,32
    900000f8:	00008067          	ret
    900000fc:	01813083          	ld	ra,24(sp)
    90000100:	01013403          	ld	s0,16(sp)
    90000104:	00100493          	li	s1,1
    90000108:	00048513          	mv	a0,s1
    9000010c:	00013903          	ld	s2,0(sp)
    90000110:	00813483          	ld	s1,8(sp)
    90000114:	02010113          	addi	sp,sp,32
    90000118:	00008067          	ret

000000009000011c <start>:
    9000011c:	fe010113          	addi	sp,sp,-32
    90000120:	01300793          	li	a5,19
    90000124:	00006737          	lui	a4,0x6
    90000128:	01b79793          	slli	a5,a5,0x1b
    9000012c:	a5a7071b          	addiw	a4,a4,-1446
    90000130:	00113c23          	sd	ra,24(sp)
    90000134:	00813823          	sd	s0,16(sp)
    90000138:	00913423          	sd	s1,8(sp)
    9000013c:	01213023          	sd	s2,0(sp)
    90000140:	00e79023          	sh	a4,0(a5)
    90000144:	098017b7          	lui	a5,0x9801
    90000148:	00000697          	auipc	a3,0x0
    9000014c:	35068693          	addi	a3,a3,848 # 90000498 <start+0x37c>
    90000150:	02100713          	li	a4,33
    90000154:	00479793          	slli	a5,a5,0x4
    90000158:	00100593          	li	a1,1
    9000015c:	0047c603          	lbu	a2,4(a5) # 9801004 <reset_vector-0x867feffc>
    90000160:	0ff67613          	andi	a2,a2,255
    90000164:	fe060ce3          	beqz	a2,9000015c <start+0x40>
    90000168:	00e781a3          	sb	a4,3(a5)
    9000016c:	00b782a3          	sb	a1,5(a5)
    90000170:	00168693          	addi	a3,a3,1
    90000174:	0006c703          	lbu	a4,0(a3)
    90000178:	fe0712e3          	bnez	a4,9000015c <start+0x40>
    9000017c:	09801437          	lui	s0,0x9801
    90000180:	00441413          	slli	s0,s0,0x4
    90000184:	00100713          	li	a4,1
    90000188:	00100813          	li	a6,1
    9000018c:	00200893          	li	a7,2
    90000190:	00a00313          	li	t1,10
    90000194:	00900513          	li	a0,9
    90000198:	00000617          	auipc	a2,0x0
    9000019c:	32060613          	addi	a2,a2,800 # 900004b8 <start+0x39c>
    900001a0:	04900693          	li	a3,73
    900001a4:	00444783          	lbu	a5,4(s0) # 9801004 <reset_vector-0x867feffc>
    900001a8:	0ff7f793          	andi	a5,a5,255
    900001ac:	fe078ce3          	beqz	a5,900001a4 <start+0x88>
    900001b0:	00d401a3          	sb	a3,3(s0)
    900001b4:	00e402a3          	sb	a4,5(s0)
    900001b8:	00160613          	addi	a2,a2,1
    900001bc:	00064683          	lbu	a3,0(a2)
    900001c0:	fe0692e3          	bnez	a3,900001a4 <start+0x88>
    900001c4:	00000493          	li	s1,0
    900001c8:	00000e13          	li	t3,0
    900001cc:	00144783          	lbu	a5,1(s0)
    900001d0:	0ff7f793          	andi	a5,a5,255
    900001d4:	fe078ce3          	beqz	a5,900001cc <start+0xb0>
    900001d8:	00044683          	lbu	a3,0(s0)
    900001dc:	00e40123          	sb	a4,2(s0)
    900001e0:	0ff6f693          	andi	a3,a3,255
    900001e4:	fd06879b          	addiw	a5,a3,-48
    900001e8:	0ff7f613          	andi	a2,a5,255
    900001ec:	000e1a63          	bnez	t3,90000200 <start+0xe4>
    900001f0:	0ac56463          	bltu	a0,a2,90000298 <start+0x17c>
    900001f4:	009784bb          	addw	s1,a5,s1
    900001f8:	00100e13          	li	t3,1
    900001fc:	fd1ff06f          	j	900001cc <start+0xb0>
    90000200:	070e0e63          	beq	t3,a6,9000027c <start+0x160>
    90000204:	fd1e14e3          	bne	t3,a7,900001cc <start+0xb0>
    90000208:	1a668463          	beq	a3,t1,900003b0 <start+0x294>
    9000020c:	00000597          	auipc	a1,0x0
    90000210:	2f458593          	addi	a1,a1,756 # 90000500 <start+0x3e4>
    90000214:	04900613          	li	a2,73
    90000218:	00444783          	lbu	a5,4(s0)
    9000021c:	0ff7f793          	andi	a5,a5,255
    90000220:	fe078ce3          	beqz	a5,90000218 <start+0xfc>
    90000224:	00c401a3          	sb	a2,3(s0)
    90000228:	00e402a3          	sb	a4,5(s0)
    9000022c:	00158593          	addi	a1,a1,1
    90000230:	0005c603          	lbu	a2,0(a1)
    90000234:	fe0612e3          	bnez	a2,90000218 <start+0xfc>
    90000238:	00444783          	lbu	a5,4(s0)
    9000023c:	0ff7f793          	andi	a5,a5,255
    90000240:	fe078ce3          	beqz	a5,90000238 <start+0x11c>
    90000244:	00d401a3          	sb	a3,3(s0)
    90000248:	00e402a3          	sb	a4,5(s0)
    9000024c:	00000617          	auipc	a2,0x0
    90000250:	2dc60613          	addi	a2,a2,732 # 90000528 <start+0x40c>
    90000254:	07c00693          	li	a3,124
    90000258:	00444783          	lbu	a5,4(s0)
    9000025c:	0ff7f793          	andi	a5,a5,255
    90000260:	fe078ce3          	beqz	a5,90000258 <start+0x13c>
    90000264:	00d401a3          	sb	a3,3(s0)
    90000268:	00e402a3          	sb	a4,5(s0)
    9000026c:	00160613          	addi	a2,a2,1
    90000270:	00064683          	lbu	a3,0(a2)
    90000274:	fe0692e3          	bnez	a3,90000258 <start+0x13c>
    90000278:	f4dff06f          	j	900001c4 <start+0xa8>
    9000027c:	08c56863          	bltu	a0,a2,9000030c <start+0x1f0>
    90000280:	0024969b          	slliw	a3,s1,0x2
    90000284:	009684bb          	addw	s1,a3,s1
    90000288:	0014949b          	slliw	s1,s1,0x1
    9000028c:	009784bb          	addw	s1,a5,s1
    90000290:	00200e13          	li	t3,2
    90000294:	f39ff06f          	j	900001cc <start+0xb0>
    90000298:	0e668463          	beq	a3,t1,90000380 <start+0x264>
    9000029c:	00000597          	auipc	a1,0x0
    900002a0:	26458593          	addi	a1,a1,612 # 90000500 <start+0x3e4>
    900002a4:	04900613          	li	a2,73
    900002a8:	00444783          	lbu	a5,4(s0)
    900002ac:	0ff7f793          	andi	a5,a5,255
    900002b0:	fe078ce3          	beqz	a5,900002a8 <start+0x18c>
    900002b4:	00c401a3          	sb	a2,3(s0)
    900002b8:	00e402a3          	sb	a4,5(s0)
    900002bc:	00158593          	addi	a1,a1,1
    900002c0:	0005c603          	lbu	a2,0(a1)
    900002c4:	fe0612e3          	bnez	a2,900002a8 <start+0x18c>
    900002c8:	00444783          	lbu	a5,4(s0)
    900002cc:	0ff7f793          	andi	a5,a5,255
    900002d0:	fe078ce3          	beqz	a5,900002c8 <start+0x1ac>
    900002d4:	00d401a3          	sb	a3,3(s0)
    900002d8:	00e402a3          	sb	a4,5(s0)
    900002dc:	00000617          	auipc	a2,0x0
    900002e0:	23c60613          	addi	a2,a2,572 # 90000518 <start+0x3fc>
    900002e4:	07c00693          	li	a3,124
    900002e8:	00444783          	lbu	a5,4(s0)
    900002ec:	0ff7f793          	andi	a5,a5,255
    900002f0:	fe078ce3          	beqz	a5,900002e8 <start+0x1cc>
    900002f4:	00d401a3          	sb	a3,3(s0)
    900002f8:	00e402a3          	sb	a4,5(s0)
    900002fc:	00160613          	addi	a2,a2,1
    90000300:	00064683          	lbu	a3,0(a2)
    90000304:	fe0692e3          	bnez	a3,900002e8 <start+0x1cc>
    90000308:	ec5ff06f          	j	900001cc <start+0xb0>
    9000030c:	0a668263          	beq	a3,t1,900003b0 <start+0x294>
    90000310:	00000597          	auipc	a1,0x0
    90000314:	1f058593          	addi	a1,a1,496 # 90000500 <start+0x3e4>
    90000318:	04900613          	li	a2,73
    9000031c:	00444783          	lbu	a5,4(s0)
    90000320:	0ff7f793          	andi	a5,a5,255
    90000324:	fe078ce3          	beqz	a5,9000031c <start+0x200>
    90000328:	00c401a3          	sb	a2,3(s0)
    9000032c:	00e402a3          	sb	a4,5(s0)
    90000330:	00158593          	addi	a1,a1,1
    90000334:	0005c603          	lbu	a2,0(a1)
    90000338:	fe0612e3          	bnez	a2,9000031c <start+0x200>
    9000033c:	00444783          	lbu	a5,4(s0)
    90000340:	0ff7f793          	andi	a5,a5,255
    90000344:	fe078ce3          	beqz	a5,9000033c <start+0x220>
    90000348:	00d401a3          	sb	a3,3(s0)
    9000034c:	00e402a3          	sb	a4,5(s0)
    90000350:	00000617          	auipc	a2,0x0
    90000354:	1d860613          	addi	a2,a2,472 # 90000528 <start+0x40c>
    90000358:	07c00693          	li	a3,124
    9000035c:	00444783          	lbu	a5,4(s0)
    90000360:	0ff7f793          	andi	a5,a5,255
    90000364:	fe078ce3          	beqz	a5,9000035c <start+0x240>
    90000368:	00d401a3          	sb	a3,3(s0)
    9000036c:	00e402a3          	sb	a4,5(s0)
    90000370:	00160613          	addi	a2,a2,1
    90000374:	00064683          	lbu	a3,0(a2)
    90000378:	fe0692e3          	bnez	a3,9000035c <start+0x240>
    9000037c:	e49ff06f          	j	900001c4 <start+0xa8>
    90000380:	00000617          	auipc	a2,0x0
    90000384:	14860613          	addi	a2,a2,328 # 900004c8 <start+0x3ac>
    90000388:	04e00693          	li	a3,78
    9000038c:	00444783          	lbu	a5,4(s0)
    90000390:	0ff7f793          	andi	a5,a5,255
    90000394:	fe078ce3          	beqz	a5,9000038c <start+0x270>
    90000398:	00d401a3          	sb	a3,3(s0)
    9000039c:	00e402a3          	sb	a4,5(s0)
    900003a0:	00160613          	addi	a2,a2,1
    900003a4:	00064683          	lbu	a3,0(a2)
    900003a8:	fe0692e3          	bnez	a3,9000038c <start+0x270>
    900003ac:	dedff06f          	j	90000198 <start+0x7c>
    900003b0:	00048513          	mv	a0,s1
    900003b4:	00000097          	auipc	ra,0x0
    900003b8:	cc4080e7          	jalr	-828(ra) # 90000078 <fib>
    900003bc:	00050913          	mv	s2,a0
    900003c0:	00000697          	auipc	a3,0x0
    900003c4:	18868693          	addi	a3,a3,392 # 90000548 <start+0x42c>
    900003c8:	00a00713          	li	a4,10
    900003cc:	00100613          	li	a2,1
    900003d0:	00444783          	lbu	a5,4(s0)
    900003d4:	0ff7f793          	andi	a5,a5,255
    900003d8:	fe078ce3          	beqz	a5,900003d0 <start+0x2b4>
    900003dc:	00e401a3          	sb	a4,3(s0)
    900003e0:	00c402a3          	sb	a2,5(s0)
    900003e4:	00168693          	addi	a3,a3,1
    900003e8:	0006c703          	lbu	a4,0(a3)
    900003ec:	fe0712e3          	bnez	a4,900003d0 <start+0x2b4>
    900003f0:	00048513          	mv	a0,s1
    900003f4:	c1dff0ef          	jal	ra,90000010 <print_int_console>
    900003f8:	00000697          	auipc	a3,0x0
    900003fc:	17068693          	addi	a3,a3,368 # 90000568 <start+0x44c>
    90000400:	07c00713          	li	a4,124
    90000404:	00100613          	li	a2,1
    90000408:	00444783          	lbu	a5,4(s0)
    9000040c:	0ff7f793          	andi	a5,a5,255
    90000410:	fe078ce3          	beqz	a5,90000408 <start+0x2ec>
    90000414:	00e401a3          	sb	a4,3(s0)
    90000418:	00c402a3          	sb	a2,5(s0)
    9000041c:	00168693          	addi	a3,a3,1
    90000420:	0006c703          	lbu	a4,0(a3)
    90000424:	fe0712e3          	bnez	a4,90000408 <start+0x2ec>
    90000428:	00090513          	mv	a0,s2
    9000042c:	be5ff0ef          	jal	ra,90000010 <print_int_console>
    90000430:	00000697          	auipc	a3,0x0
    90000434:	14068693          	addi	a3,a3,320 # 90000570 <start+0x454>
    90000438:	07c00713          	li	a4,124
    9000043c:	00100613          	li	a2,1
    90000440:	00444783          	lbu	a5,4(s0)
    90000444:	0ff7f793          	andi	a5,a5,255
    90000448:	fe078ce3          	beqz	a5,90000440 <start+0x324>
    9000044c:	00e401a3          	sb	a4,3(s0)
    90000450:	00c402a3          	sb	a2,5(s0)
    90000454:	00168693          	addi	a3,a3,1
    90000458:	0006c703          	lbu	a4,0(a3)
    9000045c:	fe0712e3          	bnez	a4,90000440 <start+0x324>
    90000460:	00000697          	auipc	a3,0x0
    90000464:	11868693          	addi	a3,a3,280 # 90000578 <start+0x45c>
    90000468:	04900713          	li	a4,73
    9000046c:	00100613          	li	a2,1
    90000470:	00444783          	lbu	a5,4(s0)
    90000474:	0ff7f793          	andi	a5,a5,255
    90000478:	fe078ce3          	beqz	a5,90000470 <start+0x354>
    9000047c:	00e401a3          	sb	a4,3(s0)
    90000480:	00c402a3          	sb	a2,5(s0)
    90000484:	00168693          	addi	a3,a3,1
    90000488:	0006c703          	lbu	a4,0(a3)
    9000048c:	fe0712e3          	bnez	a4,90000470 <start+0x354>
    90000490:	cf5ff06f          	j	90000184 <start+0x68>
    90000494:	0000                	unimp
	...
