
fib_elf:     file format elf64-littleriscv


Disassembly of section .text:

0000000090000000 <reset_vector>:
    90000000:	00001137          	lui	sp,0x1
    90000004:	8071011b          	addiw	sp,sp,-2041
    90000008:	01411113          	slli	sp,sp,0x14
    9000000c:	1ac0006f          	j	900001b8 <start>

0000000090000010 <print_int_console>:
    90000010:	09801737          	lui	a4,0x9801
    90000014:	00471713          	slli	a4,a4,0x4
    90000018:	02054463          	bltz	a0,90000040 <print_int_console+0x30>
    9000001c:	04051263          	bnez	a0,90000060 <print_int_console+0x50>
    90000020:	00474783          	lbu	a5,4(a4) # 9801004 <reset_vector-0x867feffc>
    90000024:	0ff7f793          	andi	a5,a5,255
    90000028:	fe078ce3          	beqz	a5,90000020 <print_int_console+0x10>
    9000002c:	03000793          	li	a5,48
    90000030:	00f701a3          	sb	a5,3(a4)
    90000034:	00100793          	li	a5,1
    90000038:	00f702a3          	sb	a5,5(a4)
    9000003c:	00008067          	ret
    90000040:	00474783          	lbu	a5,4(a4)
    90000044:	0ff7f793          	andi	a5,a5,255
    90000048:	fe078ce3          	beqz	a5,90000040 <print_int_console+0x30>
    9000004c:	02d00793          	li	a5,45
    90000050:	00f701a3          	sb	a5,3(a4)
    90000054:	00100793          	li	a5,1
    90000058:	40a0053b          	negw	a0,a0
    9000005c:	00f702a3          	sb	a5,5(a4)
    90000060:	00a00793          	li	a5,10
    90000064:	02f546bb          	divw	a3,a0,a5
    90000068:	f8010113          	addi	sp,sp,-128 # f80 <reset_vector-0x8ffff080>
    9000006c:	00c10613          	addi	a2,sp,12
    90000070:	00100713          	li	a4,1
    90000074:	00a00593          	li	a1,10
    90000078:	01e00813          	li	a6,30
    9000007c:	02f567bb          	remw	a5,a0,a5
    90000080:	00f12423          	sw	a5,8(sp)
    90000084:	06069063          	bnez	a3,900000e4 <print_int_console+0xd4>
    90000088:	00000713          	li	a4,0
    9000008c:	fff7059b          	addiw	a1,a4,-1
    90000090:	00810693          	addi	a3,sp,8
    90000094:	00259593          	slli	a1,a1,0x2
    90000098:	00b685b3          	add	a1,a3,a1
    9000009c:	00271713          	slli	a4,a4,0x2
    900000a0:	098016b7          	lui	a3,0x9801
    900000a4:	40e58633          	sub	a2,a1,a4
    900000a8:	00469693          	slli	a3,a3,0x4
    900000ac:	00100513          	li	a0,1
    900000b0:	0307879b          	addiw	a5,a5,48
    900000b4:	0ff7f713          	andi	a4,a5,255
    900000b8:	0046c783          	lbu	a5,4(a3) # 9801004 <reset_vector-0x867feffc>
    900000bc:	0ff7f793          	andi	a5,a5,255
    900000c0:	fe078ce3          	beqz	a5,900000b8 <print_int_console+0xa8>
    900000c4:	00e681a3          	sb	a4,3(a3)
    900000c8:	00a682a3          	sb	a0,5(a3)
    900000cc:	02b60a63          	beq	a2,a1,90000100 <print_int_console+0xf0>
    900000d0:	0005a783          	lw	a5,0(a1)
    900000d4:	ffc58593          	addi	a1,a1,-4
    900000d8:	fd9ff06f          	j	900000b0 <print_int_console+0xa0>
    900000dc:	00050713          	mv	a4,a0
    900000e0:	03050463          	beq	a0,a6,90000108 <print_int_console+0xf8>
    900000e4:	02b6e7bb          	remw	a5,a3,a1
    900000e8:	00460613          	addi	a2,a2,4
    900000ec:	0017051b          	addiw	a0,a4,1
    900000f0:	02b6c6bb          	divw	a3,a3,a1
    900000f4:	fef62e23          	sw	a5,-4(a2)
    900000f8:	fe0692e3          	bnez	a3,900000dc <print_int_console+0xcc>
    900000fc:	f91ff06f          	j	9000008c <print_int_console+0x7c>
    90000100:	08010113          	addi	sp,sp,128
    90000104:	00008067          	ret
    90000108:	07c12783          	lw	a5,124(sp)
    9000010c:	01d00713          	li	a4,29
    90000110:	f7dff06f          	j	9000008c <print_int_console+0x7c>

0000000090000114 <fib>:
    90000114:	fe010113          	addi	sp,sp,-32
    90000118:	00113c23          	sd	ra,24(sp)
    9000011c:	00813823          	sd	s0,16(sp)
    90000120:	00913423          	sd	s1,8(sp)
    90000124:	01213023          	sd	s2,0(sp)
    90000128:	04050863          	beqz	a0,90000178 <fib+0x64>
    9000012c:	00100793          	li	a5,1
    90000130:	00050413          	mv	s0,a0
    90000134:	06f50263          	beq	a0,a5,90000198 <fib+0x84>
    90000138:	00000493          	li	s1,0
    9000013c:	00100913          	li	s2,1
    90000140:	fff4051b          	addiw	a0,s0,-1
    90000144:	fd1ff0ef          	jal	ra,90000114 <fib>
    90000148:	ffe4041b          	addiw	s0,s0,-2
    9000014c:	009504bb          	addw	s1,a0,s1
    90000150:	00040663          	beqz	s0,9000015c <fib+0x48>
    90000154:	ff2416e3          	bne	s0,s2,90000140 <fib+0x2c>
    90000158:	0014849b          	addiw	s1,s1,1
    9000015c:	01813083          	ld	ra,24(sp)
    90000160:	01013403          	ld	s0,16(sp)
    90000164:	00048513          	mv	a0,s1
    90000168:	00013903          	ld	s2,0(sp)
    9000016c:	00813483          	ld	s1,8(sp)
    90000170:	02010113          	addi	sp,sp,32
    90000174:	00008067          	ret
    90000178:	01813083          	ld	ra,24(sp)
    9000017c:	01013403          	ld	s0,16(sp)
    90000180:	00000493          	li	s1,0
    90000184:	00048513          	mv	a0,s1
    90000188:	00013903          	ld	s2,0(sp)
    9000018c:	00813483          	ld	s1,8(sp)
    90000190:	02010113          	addi	sp,sp,32
    90000194:	00008067          	ret
    90000198:	01813083          	ld	ra,24(sp)
    9000019c:	01013403          	ld	s0,16(sp)
    900001a0:	00100493          	li	s1,1
    900001a4:	00048513          	mv	a0,s1
    900001a8:	00013903          	ld	s2,0(sp)
    900001ac:	00813483          	ld	s1,8(sp)
    900001b0:	02010113          	addi	sp,sp,32
    900001b4:	00008067          	ret

00000000900001b8 <start>:
    900001b8:	fe010113          	addi	sp,sp,-32
    900001bc:	01300793          	li	a5,19
    900001c0:	00006737          	lui	a4,0x6
    900001c4:	01b79793          	slli	a5,a5,0x1b
    900001c8:	a5a7071b          	addiw	a4,a4,-1446
    900001cc:	00113c23          	sd	ra,24(sp)
    900001d0:	00813823          	sd	s0,16(sp)
    900001d4:	00913423          	sd	s1,8(sp)
    900001d8:	01213023          	sd	s2,0(sp)
    900001dc:	00e79023          	sh	a4,0(a5)
    900001e0:	098017b7          	lui	a5,0x9801
    900001e4:	00000697          	auipc	a3,0x0
    900001e8:	35468693          	addi	a3,a3,852 # 90000538 <start+0x380>
    900001ec:	02100713          	li	a4,33
    900001f0:	00479793          	slli	a5,a5,0x4
    900001f4:	00100593          	li	a1,1
    900001f8:	0047c603          	lbu	a2,4(a5) # 9801004 <reset_vector-0x867feffc>
    900001fc:	0ff67613          	andi	a2,a2,255
    90000200:	fe060ce3          	beqz	a2,900001f8 <start+0x40>
    90000204:	00e781a3          	sb	a4,3(a5)
    90000208:	00b782a3          	sb	a1,5(a5)
    9000020c:	00168693          	addi	a3,a3,1
    90000210:	0006c703          	lbu	a4,0(a3)
    90000214:	fe0712e3          	bnez	a4,900001f8 <start+0x40>
    90000218:	09801437          	lui	s0,0x9801
    9000021c:	00441413          	slli	s0,s0,0x4
    90000220:	00100713          	li	a4,1
    90000224:	00100813          	li	a6,1
    90000228:	00200893          	li	a7,2
    9000022c:	00a00313          	li	t1,10
    90000230:	00900513          	li	a0,9
    90000234:	00000617          	auipc	a2,0x0
    90000238:	32460613          	addi	a2,a2,804 # 90000558 <start+0x3a0>
    9000023c:	04900693          	li	a3,73
    90000240:	00444783          	lbu	a5,4(s0) # 9801004 <reset_vector-0x867feffc>
    90000244:	0ff7f793          	andi	a5,a5,255
    90000248:	fe078ce3          	beqz	a5,90000240 <start+0x88>
    9000024c:	00d401a3          	sb	a3,3(s0)
    90000250:	00e402a3          	sb	a4,5(s0)
    90000254:	00160613          	addi	a2,a2,1
    90000258:	00064683          	lbu	a3,0(a2)
    9000025c:	fe0692e3          	bnez	a3,90000240 <start+0x88>
    90000260:	00000493          	li	s1,0
    90000264:	00000e13          	li	t3,0
    90000268:	00144783          	lbu	a5,1(s0)
    9000026c:	0ff7f793          	andi	a5,a5,255
    90000270:	fe078ce3          	beqz	a5,90000268 <start+0xb0>
    90000274:	00044683          	lbu	a3,0(s0)
    90000278:	00e40123          	sb	a4,2(s0)
    9000027c:	0ff6f693          	andi	a3,a3,255
    90000280:	fd06879b          	addiw	a5,a3,-48
    90000284:	0ff7f613          	andi	a2,a5,255
    90000288:	000e1a63          	bnez	t3,9000029c <start+0xe4>
    9000028c:	0ac56463          	bltu	a0,a2,90000334 <start+0x17c>
    90000290:	009784bb          	addw	s1,a5,s1
    90000294:	00100e13          	li	t3,1
    90000298:	fd1ff06f          	j	90000268 <start+0xb0>
    9000029c:	070e0e63          	beq	t3,a6,90000318 <start+0x160>
    900002a0:	fd1e14e3          	bne	t3,a7,90000268 <start+0xb0>
    900002a4:	1a668463          	beq	a3,t1,9000044c <start+0x294>
    900002a8:	00000597          	auipc	a1,0x0
    900002ac:	2f858593          	addi	a1,a1,760 # 900005a0 <start+0x3e8>
    900002b0:	04900613          	li	a2,73
    900002b4:	00444783          	lbu	a5,4(s0)
    900002b8:	0ff7f793          	andi	a5,a5,255
    900002bc:	fe078ce3          	beqz	a5,900002b4 <start+0xfc>
    900002c0:	00c401a3          	sb	a2,3(s0)
    900002c4:	00e402a3          	sb	a4,5(s0)
    900002c8:	00158593          	addi	a1,a1,1
    900002cc:	0005c603          	lbu	a2,0(a1)
    900002d0:	fe0612e3          	bnez	a2,900002b4 <start+0xfc>
    900002d4:	00444783          	lbu	a5,4(s0)
    900002d8:	0ff7f793          	andi	a5,a5,255
    900002dc:	fe078ce3          	beqz	a5,900002d4 <start+0x11c>
    900002e0:	00d401a3          	sb	a3,3(s0)
    900002e4:	00e402a3          	sb	a4,5(s0)
    900002e8:	00000617          	auipc	a2,0x0
    900002ec:	2e060613          	addi	a2,a2,736 # 900005c8 <start+0x410>
    900002f0:	07c00693          	li	a3,124
    900002f4:	00444783          	lbu	a5,4(s0)
    900002f8:	0ff7f793          	andi	a5,a5,255
    900002fc:	fe078ce3          	beqz	a5,900002f4 <start+0x13c>
    90000300:	00d401a3          	sb	a3,3(s0)
    90000304:	00e402a3          	sb	a4,5(s0)
    90000308:	00160613          	addi	a2,a2,1
    9000030c:	00064683          	lbu	a3,0(a2)
    90000310:	fe0692e3          	bnez	a3,900002f4 <start+0x13c>
    90000314:	f4dff06f          	j	90000260 <start+0xa8>
    90000318:	08c56863          	bltu	a0,a2,900003a8 <start+0x1f0>
    9000031c:	0024969b          	slliw	a3,s1,0x2
    90000320:	009684bb          	addw	s1,a3,s1
    90000324:	0014949b          	slliw	s1,s1,0x1
    90000328:	009784bb          	addw	s1,a5,s1
    9000032c:	00200e13          	li	t3,2
    90000330:	f39ff06f          	j	90000268 <start+0xb0>
    90000334:	0e668463          	beq	a3,t1,9000041c <start+0x264>
    90000338:	00000597          	auipc	a1,0x0
    9000033c:	26858593          	addi	a1,a1,616 # 900005a0 <start+0x3e8>
    90000340:	04900613          	li	a2,73
    90000344:	00444783          	lbu	a5,4(s0)
    90000348:	0ff7f793          	andi	a5,a5,255
    9000034c:	fe078ce3          	beqz	a5,90000344 <start+0x18c>
    90000350:	00c401a3          	sb	a2,3(s0)
    90000354:	00e402a3          	sb	a4,5(s0)
    90000358:	00158593          	addi	a1,a1,1
    9000035c:	0005c603          	lbu	a2,0(a1)
    90000360:	fe0612e3          	bnez	a2,90000344 <start+0x18c>
    90000364:	00444783          	lbu	a5,4(s0)
    90000368:	0ff7f793          	andi	a5,a5,255
    9000036c:	fe078ce3          	beqz	a5,90000364 <start+0x1ac>
    90000370:	00d401a3          	sb	a3,3(s0)
    90000374:	00e402a3          	sb	a4,5(s0)
    90000378:	00000617          	auipc	a2,0x0
    9000037c:	24060613          	addi	a2,a2,576 # 900005b8 <start+0x400>
    90000380:	07c00693          	li	a3,124
    90000384:	00444783          	lbu	a5,4(s0)
    90000388:	0ff7f793          	andi	a5,a5,255
    9000038c:	fe078ce3          	beqz	a5,90000384 <start+0x1cc>
    90000390:	00d401a3          	sb	a3,3(s0)
    90000394:	00e402a3          	sb	a4,5(s0)
    90000398:	00160613          	addi	a2,a2,1
    9000039c:	00064683          	lbu	a3,0(a2)
    900003a0:	fe0692e3          	bnez	a3,90000384 <start+0x1cc>
    900003a4:	ec5ff06f          	j	90000268 <start+0xb0>
    900003a8:	0a668263          	beq	a3,t1,9000044c <start+0x294>
    900003ac:	00000597          	auipc	a1,0x0
    900003b0:	1f458593          	addi	a1,a1,500 # 900005a0 <start+0x3e8>
    900003b4:	04900613          	li	a2,73
    900003b8:	00444783          	lbu	a5,4(s0)
    900003bc:	0ff7f793          	andi	a5,a5,255
    900003c0:	fe078ce3          	beqz	a5,900003b8 <start+0x200>
    900003c4:	00c401a3          	sb	a2,3(s0)
    900003c8:	00e402a3          	sb	a4,5(s0)
    900003cc:	00158593          	addi	a1,a1,1
    900003d0:	0005c603          	lbu	a2,0(a1)
    900003d4:	fe0612e3          	bnez	a2,900003b8 <start+0x200>
    900003d8:	00444783          	lbu	a5,4(s0)
    900003dc:	0ff7f793          	andi	a5,a5,255
    900003e0:	fe078ce3          	beqz	a5,900003d8 <start+0x220>
    900003e4:	00d401a3          	sb	a3,3(s0)
    900003e8:	00e402a3          	sb	a4,5(s0)
    900003ec:	00000617          	auipc	a2,0x0
    900003f0:	1dc60613          	addi	a2,a2,476 # 900005c8 <start+0x410>
    900003f4:	07c00693          	li	a3,124
    900003f8:	00444783          	lbu	a5,4(s0)
    900003fc:	0ff7f793          	andi	a5,a5,255
    90000400:	fe078ce3          	beqz	a5,900003f8 <start+0x240>
    90000404:	00d401a3          	sb	a3,3(s0)
    90000408:	00e402a3          	sb	a4,5(s0)
    9000040c:	00160613          	addi	a2,a2,1
    90000410:	00064683          	lbu	a3,0(a2)
    90000414:	fe0692e3          	bnez	a3,900003f8 <start+0x240>
    90000418:	e49ff06f          	j	90000260 <start+0xa8>
    9000041c:	00000617          	auipc	a2,0x0
    90000420:	14c60613          	addi	a2,a2,332 # 90000568 <start+0x3b0>
    90000424:	04e00693          	li	a3,78
    90000428:	00444783          	lbu	a5,4(s0)
    9000042c:	0ff7f793          	andi	a5,a5,255
    90000430:	fe078ce3          	beqz	a5,90000428 <start+0x270>
    90000434:	00d401a3          	sb	a3,3(s0)
    90000438:	00e402a3          	sb	a4,5(s0)
    9000043c:	00160613          	addi	a2,a2,1
    90000440:	00064683          	lbu	a3,0(a2)
    90000444:	fe0692e3          	bnez	a3,90000428 <start+0x270>
    90000448:	dedff06f          	j	90000234 <start+0x7c>
    9000044c:	00048513          	mv	a0,s1
    90000450:	00000097          	auipc	ra,0x0
    90000454:	cc4080e7          	jalr	-828(ra) # 90000114 <fib>
    90000458:	00050913          	mv	s2,a0
    9000045c:	00000697          	auipc	a3,0x0
    90000460:	18c68693          	addi	a3,a3,396 # 900005e8 <start+0x430>
    90000464:	00a00713          	li	a4,10
    90000468:	00100613          	li	a2,1
    9000046c:	00444783          	lbu	a5,4(s0)
    90000470:	0ff7f793          	andi	a5,a5,255
    90000474:	fe078ce3          	beqz	a5,9000046c <start+0x2b4>
    90000478:	00e401a3          	sb	a4,3(s0)
    9000047c:	00c402a3          	sb	a2,5(s0)
    90000480:	00168693          	addi	a3,a3,1
    90000484:	0006c703          	lbu	a4,0(a3)
    90000488:	fe0712e3          	bnez	a4,9000046c <start+0x2b4>
    9000048c:	00048513          	mv	a0,s1
    90000490:	b81ff0ef          	jal	ra,90000010 <print_int_console>
    90000494:	00000697          	auipc	a3,0x0
    90000498:	17468693          	addi	a3,a3,372 # 90000608 <start+0x450>
    9000049c:	07c00713          	li	a4,124
    900004a0:	00100613          	li	a2,1
    900004a4:	00444783          	lbu	a5,4(s0)
    900004a8:	0ff7f793          	andi	a5,a5,255
    900004ac:	fe078ce3          	beqz	a5,900004a4 <start+0x2ec>
    900004b0:	00e401a3          	sb	a4,3(s0)
    900004b4:	00c402a3          	sb	a2,5(s0)
    900004b8:	00168693          	addi	a3,a3,1
    900004bc:	0006c703          	lbu	a4,0(a3)
    900004c0:	fe0712e3          	bnez	a4,900004a4 <start+0x2ec>
    900004c4:	00090513          	mv	a0,s2
    900004c8:	b49ff0ef          	jal	ra,90000010 <print_int_console>
    900004cc:	00000697          	auipc	a3,0x0
    900004d0:	14468693          	addi	a3,a3,324 # 90000610 <start+0x458>
    900004d4:	07c00713          	li	a4,124
    900004d8:	00100613          	li	a2,1
    900004dc:	00444783          	lbu	a5,4(s0)
    900004e0:	0ff7f793          	andi	a5,a5,255
    900004e4:	fe078ce3          	beqz	a5,900004dc <start+0x324>
    900004e8:	00e401a3          	sb	a4,3(s0)
    900004ec:	00c402a3          	sb	a2,5(s0)
    900004f0:	00168693          	addi	a3,a3,1
    900004f4:	0006c703          	lbu	a4,0(a3)
    900004f8:	fe0712e3          	bnez	a4,900004dc <start+0x324>
    900004fc:	00000697          	auipc	a3,0x0
    90000500:	11c68693          	addi	a3,a3,284 # 90000618 <start+0x460>
    90000504:	04900713          	li	a4,73
    90000508:	00100613          	li	a2,1
    9000050c:	00444783          	lbu	a5,4(s0)
    90000510:	0ff7f793          	andi	a5,a5,255
    90000514:	fe078ce3          	beqz	a5,9000050c <start+0x354>
    90000518:	00e401a3          	sb	a4,3(s0)
    9000051c:	00c402a3          	sb	a2,5(s0)
    90000520:	00168693          	addi	a3,a3,1
    90000524:	0006c703          	lbu	a4,0(a3)
    90000528:	fe0712e3          	bnez	a4,9000050c <start+0x354>
    9000052c:	cf5ff06f          	j	90000220 <start+0x68>
    90000530:	0000                	unimp
	...
