
test_elf:     file format elf64-littleriscv


Disassembly of section .text:

0000000090000000 <reset_vector>:
    90000000:	00001137          	lui	sp,0x1
    90000004:	8071011b          	addiw	sp,sp,-2041
    90000008:	01411113          	slli	sp,sp,0x14
    9000000c:	0040006f          	j	90000010 <start>

0000000090000010 <start>:
    90000010:	480017b7          	lui	a5,0x48001
    90000014:	00179793          	slli	a5,a5,0x1
    90000018:	0007b703          	ld	a4,0(a5) # 48001000 <reset_vector-0x47fff000>
    9000001c:	01300e13          	li	t3,19
    90000020:	00100693          	li	a3,1
    90000024:	01be1e13          	slli	t3,t3,0x1b
    90000028:	00100793          	li	a5,1
    9000002c:	01f79793          	slli	a5,a5,0x1f
    90000030:	00de1023          	sh	a3,0(t3)
    90000034:	00e7b023          	sd	a4,0(a5)
    90000038:	40300893          	li	a7,1027
    9000003c:	00878793          	addi	a5,a5,8
    90000040:	00010837          	lui	a6,0x10
    90000044:	00100693          	li	a3,1
    90000048:	10002337          	lui	t1,0x10002
    9000004c:	fff80813          	addi	a6,a6,-1 # ffff <reset_vector-0x8fff0001>
    90000050:	00878713          	addi	a4,a5,8
    90000054:	01589893          	slli	a7,a7,0x15
    90000058:	0016951b          	slliw	a0,a3,0x1
    9000005c:	010775b3          	and	a1,a4,a6
    90000060:	00678633          	add	a2,a5,t1
    90000064:	03178e63          	beq	a5,a7,900000a0 <start+0x90>
    90000068:	00063603          	ld	a2,0(a2)
    9000006c:	00c7b023          	sd	a2,0(a5)
    90000070:	00059c63          	bnez	a1,90000088 <start+0x78>
    90000074:	03051693          	slli	a3,a0,0x30
    90000078:	0306d693          	srli	a3,a3,0x30
    9000007c:	00069463          	bnez	a3,90000084 <start+0x74>
    90000080:	00100693          	li	a3,1
    90000084:	00de1023          	sh	a3,0(t3)
    90000088:	00070793          	mv	a5,a4
    9000008c:	00878713          	addi	a4,a5,8
    90000090:	0016951b          	slliw	a0,a3,0x1
    90000094:	010775b3          	and	a1,a4,a6
    90000098:	00678633          	add	a2,a5,t1
    9000009c:	fd1796e3          	bne	a5,a7,90000068 <start+0x58>
    900000a0:	01300793          	li	a5,19
    900000a4:	0aa00713          	li	a4,170
    900000a8:	01b79793          	slli	a5,a5,0x1b
    900000ac:	00100693          	li	a3,1
    900000b0:	40300593          	li	a1,1027
    900000b4:	00e79023          	sh	a4,0(a5)
    900000b8:	01f69693          	slli	a3,a3,0x1f
    900000bc:	00000713          	li	a4,0
    900000c0:	00000517          	auipc	a0,0x0
    900000c4:	07850513          	addi	a0,a0,120 # 90000138 <crcTable>
    900000c8:	01559593          	slli	a1,a1,0x15
    900000cc:	0006c783          	lbu	a5,0(a3)
    900000d0:	0087561b          	srliw	a2,a4,0x8
    900000d4:	00871713          	slli	a4,a4,0x8
    900000d8:	00c7c7b3          	xor	a5,a5,a2
    900000dc:	00179793          	slli	a5,a5,0x1
    900000e0:	00f507b3          	add	a5,a0,a5
    900000e4:	0007d783          	lhu	a5,0(a5)
    900000e8:	00168693          	addi	a3,a3,1
    900000ec:	00e7c733          	xor	a4,a5,a4
    900000f0:	03071713          	slli	a4,a4,0x30
    900000f4:	03075713          	srli	a4,a4,0x30
    900000f8:	fcb69ae3          	bne	a3,a1,900000cc <start+0xbc>
    900000fc:	000067b7          	lui	a5,0x6
    90000100:	85078793          	addi	a5,a5,-1968 # 5850 <reset_vector-0x8fffa7b0>
    90000104:	00f70c63          	beq	a4,a5,9000011c <start+0x10c>
    90000108:	01300793          	li	a5,19
    9000010c:	01b79793          	slli	a5,a5,0x1b
    90000110:	fff00713          	li	a4,-1
    90000114:	00e79023          	sh	a4,0(a5)
    90000118:	0000006f          	j	90000118 <start+0x108>
    9000011c:	01300793          	li	a5,19
    90000120:	ffffb737          	lui	a4,0xffffb
    90000124:	01b79793          	slli	a5,a5,0x1b
    90000128:	a007071b          	addiw	a4,a4,-1536
    9000012c:	00e79023          	sh	a4,0(a5)
    90000130:	0000006f          	j	90000130 <start+0x120>
